Certificate:
    Data:
        Version: 3 (0x2)
        Serial Number: 1 (0x1)
        Signature Algorithm: sha256WithRSAEncryption
        Issuer: O=ICANN, OU=ICANN Certification Authority, CN=ICANN Root CA, C=US
        Validity
            Not Before: Dec 23 04:19:12 2009 GMT
            Not After : Dec 18 04:19:12 2029 GMT
        Subject: O=ICANN, OU=ICANN Certification Authority, CN=ICANN Root CA, C=US
        Subject Public Key Info:
            Public Key Algorithm: rsaEncryption
            RSA Public Key: (2048 bit)
                Modulus (2048 bit):
                    00:a0:db:70:b8:4f:34:da:9c:d4:d0:7e:bb:ea:15:
                    bc:e9:c9:11:2a:1f:61:2f:6a:b9:bd:3f:3d:76:a0:
                    9a:0a:f7:ee:93:6e:6e:55:53:84:8c:f2:2c:f1:82:
                    27:c8:0f:9a:cf:52:1b:54:da:28:d2:2c:30:8e:dd:
                    fb:92:20:33:2d:d6:c8:f1:0e:10:21:88:71:fa:84:
                    22:4b:5d:47:56:16:7c:9b:9f:5d:c3:11:79:9c:14:
                    e2:ff:c0:74:ac:dd:39:d7:e0:38:d8:b0:73:aa:fb:
                    d1:db:84:af:52:22:a8:f6:d5:9b:94:f4:e6:5d:5e:
                    e8:3f:87:90:0b:c7:1a:77:f5:2e:d3:8f:1a:ce:02:
                    1d:07:69:21:47:32:da:46:ae:00:4c:b6:a5:a2:9c:
                    39:c1:c0:4a:f6:d3:1c:ae:d3:6d:bb:c7:18:f0:7e:
                    ed:f6:80:ce:d0:01:2e:89:de:12:ba:ee:11:cb:a6:
                    7a:d7:0d:7c:f3:08:8d:72:9d:bf:55:75:13:70:bb:
                    31:22:4a:cb:e8:c0:aa:a4:09:aa:36:68:40:60:74:
                    9d:e7:19:81:43:22:52:fe:c9:2b:52:0f:41:13:36:
                    09:72:65:95:cc:89:ae:6f:56:17:16:34:73:52:a3:
                    04:ed:bd:88:82:8a:eb:d7:dc:82:52:9c:06:e1:52:
                    85:41
                Exponent: 65537 (0x10001)
        X509v3 extensions:
            X509v3 Basic Constraints: critical
                CA:TRUE
            X509v3 Key Usage: critical
                Digital Signature, Non Repudiation, Key Encipherment, Data Encipherment, Key Agreement, Certificate Sign, CRL Sign
            X509v3 Subject Key Identifier: 
                BA:52:E9:49:83:24:86:52:2F:C7:99:CD:FC:8D:6B:69:08:4D:C0:50
    Signature Algorithm: sha256WithRSAEncryption
        0f:f1:e9:82:a2:0a:87:9f:2d:94:60:5a:b2:c0:4b:a1:2f:2b:
        3b:47:d5:0a:99:86:38:b2:ec:c6:3b:89:e4:6e:07:cf:14:c7:
        c7:e8:cf:99:8f:aa:30:c3:19:70:b9:e6:6d:d6:3f:c8:68:26:
        b2:a0:a5:37:42:ca:d8:62:80:d1:a2:5a:48:2e:1f:85:3f:0c:
        7b:c2:c7:94:11:5f:19:2a:95:ac:a0:3a:03:d8:91:5b:2e:0d:
        9c:7c:1f:2e:fc:e9:44:e1:16:26:73:1c:45:4a:65:c1:83:4c:
        90:f3:f2:28:42:df:db:c4:e7:04:12:18:62:43:5e:bc:1f:6c:
        84:e6:bc:49:32:df:61:d7:99:ee:e4:90:52:7b:0a:c2:91:8a:
        98:62:66:b1:c8:e0:b7:5a:b5:46:7c:76:71:54:8e:cc:a4:81:
        5c:19:db:d2:6f:66:b5:bb:2b:ae:6b:c9:74:04:a8:24:de:e8:
        c5:d3:fc:2c:1c:d7:8f:db:6a:8d:c9:53:be:5d:50:73:ac:cf:
        1f:93:c0:52:50:5b:a2:4f:fe:ad:65:36:17:46:d1:2d:e5:a2:
        90:66:05:db:29:4e:5d:50:5d:e3:4f:da:a0:8f:f0:6b:e4:16:
        70:dd:7f:f3:77:7d:b9:4e:f9:ec:c3:33:02:d7:e9:63:2f:31:
        e7:40:61:a4
-----BEGIN CERTIFICATE-----
MIIDdzCCAl+gAwIBAgIBATANBgkqhkiG9w0BAQsFADBdMQ4wDAYDVQQKEwVJQ0FO
TjEmMCQGA1UECxMdSUNBTk4gQ2VydGlmaWNhdGlvbiBBdXRob3JpdHkxFjAUBgNV
BAMTDUlDQU5OIFJvb3QgQ0ExCzAJBgNVBAYTAlVTMB4XDTA5MTIyMzA0MTkxMloX
DTI5MTIxODA0MTkxMlowXTEOMAwGA1UEChMFSUNBTk4xJjAkBgNVBAsTHUlDQU5O
IENlcnRpZmljYXRpb24gQXV0aG9yaXR5MRYwFAYDVQQDEw1JQ0FOTiBSb290IENB
MQswCQYDVQQGEwJVUzCCASIwDQYJKoZIhvcNAQEBBQADggEPADCCAQoCggEBAKDb
cLhPNNqc1NB+u+oVvOnJESofYS9qub0/PXagmgr37pNublVThIzyLPGCJ8gPms9S
G1TaKNIsMI7d+5IgMy3WyPEOECGIcfqEIktdR1YWfJufXcMReZwU4v/AdKzdOdfg
ONiwc6r70duEr1IiqPbVm5T05l1e6D+HkAvHGnf1LtOPGs4CHQdpIUcy2kauAEy2
paKcOcHASvbTHK7TbbvHGPB+7faAztABLoneErruEcumetcNfPMIjXKdv1V1E3C7
MSJKy+jAqqQJqjZoQGB0necZgUMiUv7JK1IPQRM2CXJllcyJrm9WFxY0c1KjBO29
iIKK69fcglKcBuFShUECAwEAAaNCMEAwDwYDVR0TAQH/BAUwAwEB/zAOBgNVHQ8B
Af8EBAMCAf4wHQYDVR0OBBYEFLpS6UmDJIZSL8eZzfyNa2kITcBQMA0GCSqGSIb3
DQEBCwUAA4IBAQAP8emCogqHny2UYFqywEuhLys7R9UKmYY4suzGO4nkbgfPFMfH
6M+Zj6owwxlwueZt1j/IaCayoKU3QsrYYoDRolpILh+FPwx7wseUEV8ZKpWsoDoD
2JFbLg2cfB8u/OlE4RYmcxxFSmXBg0yQ8/IoQt/bxOcEEhhiQ168H2yE5rxJMt9h
15nu5JBSewrCkYqYYmaxyOC3WrVGfHZxVI7MpIFcGdvSb2a1uyuua8l0BKgk3ujF
0/wsHNeP22qNyVO+XVBzrM8fk8BSUFuiT/6tZTYXRtEt5aKQZgXbKU5dUF3jT9qg
j/Br5BZw3X/zd325TvnswzMC1+ljLzHnQGGk
-----END CERTIFICATE-----
